target datalayout = "e-m:e-p270:32:32-p271:32:32-p272:64:64-i64:64-i128:128-f80:128-n8:16:32:64-S128"
target triple = "x86_64-pc-linux-gnu"

%struct.GetBitContext = type { ptr, ptr, i32, i32, i32 }
%struct.Table = type { i32, [12 x i32], [12 x [128 x i32]] }

@ff_log2_tab = external constant [256 x i8], align 16

; Function Attrs: alwaysinline nounwind willreturn memory(none) uwtable
define internal i32 @av_bswap32(i32 noundef %0) #8 {
  %2 = alloca i32, align 4
  store i32 %0, ptr %2, align 4, !tbaa !34
  %3 = load i32, ptr %2, align 4, !tbaa !34
  %4 = shl i32 %3, 8
  %5 = and i32 %4, 65280
  %6 = load i32, ptr %2, align 4, !tbaa !34
  %7 = lshr i32 %6, 8
  %8 = and i32 %7, 255
  %9 = or i32 %5, %8
  %10 = shl i32 %9, 16
  %11 = load i32, ptr %2, align 4, !tbaa !34
  %12 = lshr i32 %11, 16
  %13 = shl i32 %12, 8
  %14 = and i32 %13, 65280
  %15 = load i32, ptr %2, align 4, !tbaa !34
  %16 = lshr i32 %15, 16
  %17 = lshr i32 %16, 8
  %18 = and i32 %17, 255
  %19 = or i32 %14, %18
  %20 = or i32 %10, %19
  ret i32 %20
}

; Function Attrs: inlinehint nounwind uwtable
define internal i32 @get_bits(ptr noundef %0, i32 noundef %1) #5 {
  %3 = alloca ptr, align 8
  %4 = alloca i32, align 4
  %5 = alloca i32, align 4
  %6 = alloca i32, align 4
  %7 = alloca i32, align 4
  %8 = alloca i32, align 4
  store ptr %0, ptr %3, align 8, !tbaa !42
  store i32 %1, ptr %4, align 4, !tbaa !34
  call void @llvm.lifetime.start.p0(i64 4, ptr %5) #9
  call void @llvm.lifetime.start.p0(i64 4, ptr %6) #9
  %9 = load ptr, ptr %3, align 8, !tbaa !42
  %10 = getelementptr inbounds nuw %struct.GetBitContext, ptr %9, i32 0, i32 2
  %11 = load i32, ptr %10, align 8, !tbaa !71
  store i32 %11, ptr %6, align 4, !tbaa !34
  call void @llvm.lifetime.start.p0(i64 4, ptr %7) #9
  call void @llvm.lifetime.start.p0(i64 4, ptr %8) #9
  %12 = load ptr, ptr %3, align 8, !tbaa !42
  %13 = getelementptr inbounds nuw %struct.GetBitContext, ptr %12, i32 0, i32 4
  %14 = load i32, ptr %13, align 8, !tbaa !73
  store i32 %14, ptr %8, align 4, !tbaa !34
  %15 = load ptr, ptr %3, align 8, !tbaa !42
  %16 = getelementptr inbounds nuw %struct.GetBitContext, ptr %15, i32 0, i32 0
  %17 = load ptr, ptr %16, align 8, !tbaa !72
  %18 = load i32, ptr %6, align 4, !tbaa !34
  %19 = lshr i32 %18, 3
  %20 = zext i32 %19 to i64
  %21 = getelementptr inbounds nuw i8, ptr %17, i64 %20
  %22 = load i32, ptr %21, align 1, !tbaa !65
  %23 = call i32 @av_bswap32(i32 noundef %22) #10
  %24 = load i32, ptr %6, align 4, !tbaa !34
  %25 = and i32 %24, 7
  %26 = shl i32 %23, %25
  %27 = lshr i32 %26, 0
  store i32 %27, ptr %7, align 4, !tbaa !34
  %28 = load i32, ptr %7, align 4, !tbaa !34
  %29 = load i32, ptr %4, align 4, !tbaa !34
  %30 = sub nsw i32 32, %29
  %31 = lshr i32 %28, %30
  store i32 %31, ptr %5, align 4, !tbaa !34
  %32 = load i32, ptr %8, align 4, !tbaa !34
  %33 = load i32, ptr %6, align 4, !tbaa !34
  %34 = load i32, ptr %4, align 4, !tbaa !34
  %35 = add i32 %33, %34
  %36 = icmp ugt i32 %32, %35
  br i1 %36, label %37, label %41

37:                                               ; preds = %2
  %38 = load i32, ptr %6, align 4, !tbaa !34
  %39 = load i32, ptr %4, align 4, !tbaa !34
  %40 = add i32 %38, %39
  br label %43

41:                                               ; preds = %2
  %42 = load i32, ptr %8, align 4, !tbaa !34
  br label %43

43:                                               ; preds = %41, %37
  %44 = phi i32 [ %40, %37 ], [ %42, %41 ]
  store i32 %44, ptr %6, align 4, !tbaa !34
  %45 = load i32, ptr %6, align 4, !tbaa !34
  %46 = load ptr, ptr %3, align 8, !tbaa !42
  %47 = getelementptr inbounds nuw %struct.GetBitContext, ptr %46, i32 0, i32 2
  store i32 %45, ptr %47, align 8, !tbaa !71
  %48 = load i32, ptr %5, align 4, !tbaa !34
  call void @llvm.lifetime.end.p0(i64 4, ptr %8) #9
  call void @llvm.lifetime.end.p0(i64 4, ptr %7) #9
  call void @llvm.lifetime.end.p0(i64 4, ptr %6) #9
  call void @llvm.lifetime.end.p0(i64 4, ptr %5) #9
  ret i32 %48
}

; Function Attrs: alwaysinline nounwind willreturn memory(none) uwtable
define internal i32 @ff_log2_c(i32 noundef %0) #8 {
  %2 = alloca i32, align 4
  %3 = alloca i32, align 4
  store i32 %0, ptr %2, align 4, !tbaa !34
  call void @llvm.lifetime.start.p0(i64 4, ptr %3) #9
  store i32 0, ptr %3, align 4, !tbaa !34
  %4 = load i32, ptr %2, align 4, !tbaa !34
  %5 = and i32 %4, -65536
  %6 = icmp ne i32 %5, 0
  br i1 %6, label %7, label %12

7:                                                ; preds = %1
  %8 = load i32, ptr %2, align 4, !tbaa !34
  %9 = lshr i32 %8, 16
  store i32 %9, ptr %2, align 4, !tbaa !34
  %10 = load i32, ptr %3, align 4, !tbaa !34
  %11 = add nsw i32 %10, 16
  store i32 %11, ptr %3, align 4, !tbaa !34
  br label %12

12:                                               ; preds = %7, %1
  %13 = load i32, ptr %2, align 4, !tbaa !34
  %14 = and i32 %13, 65280
  %15 = icmp ne i32 %14, 0
  br i1 %15, label %16, label %21

16:                                               ; preds = %12
  %17 = load i32, ptr %2, align 4, !tbaa !34
  %18 = lshr i32 %17, 8
  store i32 %18, ptr %2, align 4, !tbaa !34
  %19 = load i32, ptr %3, align 4, !tbaa !34
  %20 = add nsw i32 %19, 8
  store i32 %20, ptr %3, align 4, !tbaa !34
  br label %21

21:                                               ; preds = %16, %12
  %22 = load i32, ptr %2, align 4, !tbaa !34
  %23 = zext i32 %22 to i64
  %24 = getelementptr inbounds nuw [256 x i8], ptr @ff_log2_tab, i64 0, i64 %23
  %25 = load i8, ptr %24, align 1, !tbaa !65
  %26 = zext i8 %25 to i32
  %27 = load i32, ptr %3, align 4, !tbaa !34
  %28 = add nsw i32 %27, %26
  store i32 %28, ptr %3, align 4, !tbaa !34
  %29 = load i32, ptr %3, align 4, !tbaa !34
  call void @llvm.lifetime.end.p0(i64 4, ptr %3) #9
  ret i32 %29
}

; Function Attrs: inlinehint nounwind uwtable
define internal i32 @get_bits1(ptr noundef %0) #5 {
  %2 = alloca ptr, align 8
  %3 = alloca i32, align 4
  %4 = alloca i8, align 1
  store ptr %0, ptr %2, align 8, !tbaa !42
  call void @llvm.lifetime.start.p0(i64 4, ptr %3) #9
  %5 = load ptr, ptr %2, align 8, !tbaa !42
  %6 = getelementptr inbounds nuw %struct.GetBitContext, ptr %5, i32 0, i32 2
  %7 = load i32, ptr %6, align 8, !tbaa !71
  store i32 %7, ptr %3, align 4, !tbaa !34
  call void @llvm.lifetime.start.p0(i64 1, ptr %4) #9
  %8 = load ptr, ptr %2, align 8, !tbaa !42
  %9 = getelementptr inbounds nuw %struct.GetBitContext, ptr %8, i32 0, i32 0
  %10 = load ptr, ptr %9, align 8, !tbaa !72
  %11 = load i32, ptr %3, align 4, !tbaa !34
  %12 = lshr i32 %11, 3
  %13 = zext i32 %12 to i64
  %14 = getelementptr inbounds nuw i8, ptr %10, i64 %13
  %15 = load i8, ptr %14, align 1, !tbaa !65
  store i8 %15, ptr %4, align 1, !tbaa !65
  %16 = load i32, ptr %3, align 4, !tbaa !34
  %17 = and i32 %16, 7
  %18 = load i8, ptr %4, align 1, !tbaa !65
  %19 = zext i8 %18 to i32
  %20 = shl i32 %19, %17
  %21 = trunc i32 %20 to i8
  store i8 %21, ptr %4, align 1, !tbaa !65
  %22 = load i8, ptr %4, align 1, !tbaa !65
  %23 = zext i8 %22 to i32
  %24 = ashr i32 %23, 7
  %25 = trunc i32 %24 to i8
  store i8 %25, ptr %4, align 1, !tbaa !65
  %26 = load ptr, ptr %2, align 8, !tbaa !42
  %27 = getelementptr inbounds nuw %struct.GetBitContext, ptr %26, i32 0, i32 2
  %28 = load i32, ptr %27, align 8, !tbaa !71
  %29 = load ptr, ptr %2, align 8, !tbaa !42
  %30 = getelementptr inbounds nuw %struct.GetBitContext, ptr %29, i32 0, i32 4
  %31 = load i32, ptr %30, align 8, !tbaa !73
  %32 = icmp slt i32 %28, %31
  br i1 %32, label %33, label %36

33:                                               ; preds = %1
  %34 = load i32, ptr %3, align 4, !tbaa !34
  %35 = add i32 %34, 1
  store i32 %35, ptr %3, align 4, !tbaa !34
  br label %36

36:                                               ; preds = %33, %1
  %37 = load i32, ptr %3, align 4, !tbaa !34
  %38 = load ptr, ptr %2, align 8, !tbaa !42
  %39 = getelementptr inbounds nuw %struct.GetBitContext, ptr %38, i32 0, i32 2
  store i32 %37, ptr %39, align 8, !tbaa !71
  %40 = load i8, ptr %4, align 1, !tbaa !65
  %41 = zext i8 %40 to i32
  call void @llvm.lifetime.end.p0(i64 1, ptr %4) #9
  call void @llvm.lifetime.end.p0(i64 4, ptr %3) #9
  ret i32 %41
}

; Function Attrs: nounwind uwtable
define internal i32 @read_map(ptr noundef %0, ptr noundef %1, ptr noundef %2, i32 noundef %3) #1 {
  %5 = alloca i32, align 4
  %6 = alloca ptr, align 8
  %7 = alloca ptr, align 8
  %8 = alloca ptr, align 8
  %9 = alloca i32, align 4
  %10 = alloca i32, align 4
  %11 = alloca i32, align 4
  %12 = alloca i32, align 4
  store ptr %0, ptr %6, align 8, !tbaa !42
  store ptr %1, ptr %7, align 8, !tbaa !74
  store ptr %2, ptr %8, align 8, !tbaa !39
  store i32 %3, ptr %9, align 4, !tbaa !34
  call void @llvm.lifetime.start.p0(i64 4, ptr %10) #9
  %13 = load ptr, ptr %7, align 8, !tbaa !74
  %14 = getelementptr inbounds nuw %struct.Table, ptr %13, i32 0, i32 0
  store i32 1, ptr %14, align 4, !tbaa !76
  %15 = load ptr, ptr %8, align 8, !tbaa !39
  %16 = getelementptr inbounds i32, ptr %15, i64 0
  store i32 0, ptr %16, align 4, !tbaa !34
  %17 = load ptr, ptr %6, align 8, !tbaa !42
  %18 = call i32 @get_bits1(ptr noundef %17)
  %19 = icmp ne i32 %18, 0
  br i1 %19, label %78, label %20

20:                                               ; preds = %4
  store i32 1, ptr %10, align 4, !tbaa !34
  br label %21

21:                                               ; preds = %74, %20
  %22 = load i32, ptr %10, align 4, !tbaa !34
  %23 = load i32, ptr %9, align 4, !tbaa !34
  %24 = icmp slt i32 %22, %23
  br i1 %24, label %25, label %77

25:                                               ; preds = %21
  call void @llvm.lifetime.start.p0(i64 4, ptr %11) #9
  %26 = load ptr, ptr %7, align 8, !tbaa !74
  %27 = getelementptr inbounds nuw %struct.Table, ptr %26, i32 0, i32 0
  %28 = load i32, ptr %27, align 4, !tbaa !76
  %29 = call i32 @ff_log2_c(i32 noundef %28) #10
  %30 = add nsw i32 %29, 1
  store i32 %30, ptr %11, align 4, !tbaa !34
  %31 = load ptr, ptr %6, align 8, !tbaa !42
  %32 = load i32, ptr %11, align 4, !tbaa !34
  %33 = call i32 @get_bits(ptr noundef %31, i32 noundef %32)
  %34 = load ptr, ptr %8, align 8, !tbaa !39
  %35 = load i32, ptr %10, align 4, !tbaa !34
  %36 = sext i32 %35 to i64
  %37 = getelementptr inbounds i32, ptr %34, i64 %36
  store i32 %33, ptr %37, align 4, !tbaa !34
  %38 = load ptr, ptr %8, align 8, !tbaa !39
  %39 = load i32, ptr %10, align 4, !tbaa !34
  %40 = sext i32 %39 to i64
  %41 = getelementptr inbounds i32, ptr %38, i64 %40
  %42 = load i32, ptr %41, align 4, !tbaa !34
  %43 = load ptr, ptr %7, align 8, !tbaa !74
  %44 = getelementptr inbounds nuw %struct.Table, ptr %43, i32 0, i32 0
  %45 = load i32, ptr %44, align 4, !tbaa !76
  %46 = icmp eq i32 %42, %45
  br i1 %46, label %47, label %58

47:                                               ; preds = %25
  %48 = load ptr, ptr %7, align 8, !tbaa !74
  %49 = getelementptr inbounds nuw %struct.Table, ptr %48, i32 0, i32 0
  %50 = load i32, ptr %49, align 4, !tbaa !76
  %51 = add i32 %50, 1
  store i32 %51, ptr %49, align 4, !tbaa !76
  %52 = load ptr, ptr %7, align 8, !tbaa !74
  %53 = getelementptr inbounds nuw %struct.Table, ptr %52, i32 0, i32 0
  %54 = load i32, ptr %53, align 4, !tbaa !76
  %55 = icmp uge i32 %54, 12
  br i1 %55, label %56, label %57

56:                                               ; preds = %47
  store i32 -1094995529, ptr %5, align 4
  store i32 1, ptr %12, align 4
  br label %71

57:                                               ; preds = %47
  br label %70

58:                                               ; preds = %25
  %59 = load ptr, ptr %8, align 8, !tbaa !39
  %60 = load i32, ptr %10, align 4, !tbaa !34
  %61 = sext i32 %60 to i64
  %62 = getelementptr inbounds i32, ptr %59, i64 %61
  %63 = load i32, ptr %62, align 4, !tbaa !34
  %64 = load ptr, ptr %7, align 8, !tbaa !74
  %65 = getelementptr inbounds nuw %struct.Table, ptr %64, i32 0, i32 0
  %66 = load i32, ptr %65, align 4, !tbaa !76
  %67 = icmp ugt i32 %63, %66
  br i1 %67, label %68, label %69

68:                                               ; preds = %58
  store i32 -1094995529, ptr %5, align 4
  store i32 1, ptr %12, align 4
  br label %71

69:                                               ; preds = %58
  br label %70

70:                                               ; preds = %69, %57
  store i32 0, ptr %12, align 4
  br label %71

71:                                               ; preds = %70, %68, %56
  call void @llvm.lifetime.end.p0(i64 4, ptr %11) #9
  %72 = load i32, ptr %12, align 4
  switch i32 %72, label %81 [
    i32 0, label %73
  ]

73:                                               ; preds = %71
  br label %74

74:                                               ; preds = %73
  %75 = load i32, ptr %10, align 4, !tbaa !34
  %76 = add nsw i32 %75, 1
  store i32 %76, ptr %10, align 4, !tbaa !34
  br label %21, !llvm.loop !77

77:                                               ; preds = %21
  br label %80

78:                                               ; preds = %4
  %79 = load ptr, ptr %8, align 8, !tbaa !39
  call void @llvm.memset.p0.i64(ptr align 4 %79, i8 0, i64 24, i1 false)
  br label %80

80:                                               ; preds = %78, %77
  store i32 0, ptr %5, align 4
  store i32 1, ptr %12, align 4
  br label %81

81:                                               ; preds = %80, %71
  call void @llvm.lifetime.end.p0(i64 4, ptr %10) #9
  %82 = load i32, ptr %5, align 4
  ret i32 %82
}