; Function Attrs: nofree norecurse nosync nounwind memory(read, argmem: readwrite, inaccessiblemem: none) uwtable
define internal fastcc range(i32 -1094995529, 1) i32 @read_map(ptr noundef captures(none) %0, ptr noundef captures(none) initializes((0, 4)) %1, ptr noundef nonnull writeonly captures(none) initializes((0, 4)) %2, i32 noundef %3) unnamed_addr #6 {
  store i32 1, ptr %1, align 4, !tbaa !48
  store i32 0, ptr %2, align 4, !tbaa !50
  %5 = getelementptr inbounds nuw i8, ptr %0, i64 16
  %6 = load i32, ptr %5, align 8, !tbaa !46
  %7 = load ptr, ptr %0, align 8, !tbaa !41
  %8 = lshr i32 %6, 3
  %9 = zext nneg i32 %8 to i64
  %10 = getelementptr inbounds nuw i8, ptr %7, i64 %9
  %11 = load i8, ptr %10, align 1, !tbaa !47
  %12 = getelementptr inbounds nuw i8, ptr %0, i64 24
  %13 = load i32, ptr %12, align 8, !tbaa !44
  %14 = icmp slt i32 %6, %13
  %15 = zext i1 %14 to i32
  %spec.select.i26 = add i32 %6, %15
  %16 = zext i8 %11 to i32
  %17 = and i32 %6, 7
  store i32 %spec.select.i26, ptr %5, align 8, !tbaa !46
  %18 = lshr exact i32 128, %17
  %19 = and i32 %18, %16
  %.not = icmp eq i32 %19, 0
  br i1 %.not, label %.preheader, label %53

.preheader:                                       ; preds = %4
  %20 = icmp sgt i32 %3, 1
  br i1 %20, label %.lr.ph.preheader, label %.loopexit

.lr.ph.preheader:                                 ; preds = %.preheader
  %wide.trip.count = zext nneg i32 %3 to i64
  %.pre = load i32, ptr %1, align 4, !tbaa !48
  br label %.lr.ph

.lr.ph:                                           ; preds = %.lr.ph.preheader, %.critedge
  %21 = phi i32 [ %.pre, %.lr.ph.preheader ], [ %52, %.critedge ]
  %indvars.iv = phi i64 [ 1, %.lr.ph.preheader ], [ %indvars.iv.next, %.critedge ]
  %.not.i = icmp ult i32 %21, 65536
  %22 = lshr i32 %21, 16
  %spec.select.i = select i1 %.not.i, i32 %21, i32 %22
  %spec.select12.i = select i1 %.not.i, i32 0, i32 16
  %.not11.i = icmp samesign ult i32 %spec.select.i, 256
  %23 = lshr i32 %spec.select.i, 8
  %24 = or disjoint i32 %spec.select12.i, 8
  %.110.i = select i1 %.not11.i, i32 %spec.select.i, i32 %23
  %.1.i = select i1 %.not11.i, i32 %spec.select12.i, i32 %24
  %25 = zext nneg i32 %.110.i to i64
  %26 = getelementptr inbounds nuw [256 x i8], ptr @ff_log2_tab, i64 0, i64 %25
  %27 = load i8, ptr %26, align 1, !tbaa !47
  %28 = zext i8 %27 to i32
  %29 = add nuw nsw i32 %.1.i, %28
  %30 = load i32, ptr %5, align 8, !tbaa !46
  %31 = load i32, ptr %12, align 8, !tbaa !44
  %32 = lshr i32 %30, 3
  %33 = zext nneg i32 %32 to i64
  %34 = getelementptr inbounds nuw i8, ptr %7, i64 %33
  %35 = load i32, ptr %34, align 1, !tbaa !47
  %36 = tail call i32 @llvm.bswap.i32(i32 %35)
  %37 = and i32 %30, 7
  %38 = shl i32 %36, %37
  %39 = sub nsw i32 31, %29
  %40 = lshr i32 %38, %39
  %41 = add i32 %30, 1
  %42 = add i32 %41, %29
  %43 = tail call i32 @llvm.umin.i32(i32 %31, i32 %42)
  store i32 %43, ptr %5, align 8, !tbaa !46
  %44 = getelementptr inbounds nuw i32, ptr %2, i64 %indvars.iv
  store i32 %40, ptr %44, align 4, !tbaa !50
  %45 = load i32, ptr %1, align 4, !tbaa !48
  %46 = icmp eq i32 %40, %45
  br i1 %46, label %47, label %50

47:                                               ; preds = %.lr.ph
  %48 = add i32 %40, 1
  store i32 %48, ptr %1, align 4, !tbaa !48
  %49 = icmp ugt i32 %48, 11
  br i1 %49, label %.loopexit, label %.critedge

50:                                               ; preds = %.lr.ph
  %51 = icmp ugt i32 %40, %45
  br i1 %51, label %.loopexit, label %.critedge

.critedge:                                        ; preds = %50, %47
  %52 = phi i32 [ %45, %50 ], [ %48, %47 ]
  %indvars.iv.next = add nuw nsw i64 %indvars.iv, 1
  %exitcond.not = icmp eq i64 %indvars.iv.next, %wide.trip.count
  br i1 %exitcond.not, label %.loopexit, label %.lr.ph, !llvm.loop !51

53:                                               ; preds = %4
  tail call void @llvm.memset.p0.i64(ptr noundef nonnull align 4 dereferenceable(24) %2, i8 0, i64 24, i1 false)
  br label %.loopexit

.loopexit:                                        ; preds = %50, %47, %.critedge, %.preheader, %53
  %.2 = phi i32 [ 0, %53 ], [ 0, %.preheader ], [ -1094995529, %50 ], [ -1094995529, %47 ], [ 0, %.critedge ]
  ret i32 %.2
}